target datalayout = "e-m:e-p270:32:32-p271:32:32-p272:64:64-i64:64-i128:128-f80:128-n8:16:32:64-S128"
target triple = "x86_64-pc-linux-gnu"

%class.TypedMethodOptionMatcher = type { %class.MethodMatcher, ptr, i32, %union.anon }
%class.MethodMatcher = type { ptr, ptr, ptr, i32, i32 }
%union.anon = type { i64 }

; Function Attrs: mustprogress nounwind uwtable
define linkonce_odr hidden noundef ptr @_ZN24TypedMethodOptionMatcher4nextEv(ptr noundef nonnull align 8 dereferenceable(56) %0) #1 comdat align 2 {
  %2 = alloca ptr, align 8
  store ptr %0, ptr %2, align 8
  %3 = load ptr, ptr %2, align 8
  %4 = getelementptr inbounds %class.TypedMethodOptionMatcher, ptr %3, i32 0, i32 1
  %5 = load ptr, ptr %4, align 8
  ret ptr %5
}

; Function Attrs: mustprogress nounwind uwtable
define hidden noundef ptr @_ZN24TypedMethodOptionMatcher5matchERK12methodHandle18CompileCommandEnum(ptr noundef nonnull align 8 dereferenceable(56) %0, ptr noundef nonnull align 8 dereferenceable(16) %1, i32 noundef %2) #1 align 2 {
  %4 = alloca ptr, align 8
  %5 = alloca ptr, align 8
  %6 = alloca ptr, align 8
  %7 = alloca i32, align 4
  %8 = alloca ptr, align 8
  store ptr %0, ptr %5, align 8
  store ptr %1, ptr %6, align 8
  store i32 %2, ptr %7, align 4
  %9 = load ptr, ptr %5, align 8
  store ptr %9, ptr %8, align 8
  br label %10

10:                                               ; preds = %26, %3
  %11 = load ptr, ptr %8, align 8
  %12 = icmp ne ptr %11, null
  br i1 %12, label %13, label %29

13:                                               ; preds = %10
  %14 = load ptr, ptr %8, align 8
  %15 = getelementptr inbounds %class.TypedMethodOptionMatcher, ptr %14, i32 0, i32 2
  %16 = load i32, ptr %15, align 8
  %17 = load i32, ptr %7, align 4
  %18 = icmp eq i32 %16, %17
  br i1 %18, label %19, label %26

19:                                               ; preds = %13
  %20 = load ptr, ptr %8, align 8
  %21 = load ptr, ptr %6, align 8
  %22 = call noundef zeroext i1 @_ZNK13MethodMatcher7matchesERK12methodHandle(ptr noundef nonnull align 8 dereferenceable(32) %20, ptr noundef nonnull align 8 dereferenceable(16) %21)
  br i1 %22, label %23, label %25

23:                                               ; preds = %19
  %24 = load ptr, ptr %8, align 8
  store ptr %24, ptr %4, align 8
  br label %30

25:                                               ; preds = %19
  br label %26

26:                                               ; preds = %25, %13
  %27 = load ptr, ptr %8, align 8
  %28 = call noundef ptr @_ZN24TypedMethodOptionMatcher4nextEv(ptr noundef nonnull align 8 dereferenceable(56) %27)
  store ptr %28, ptr %8, align 8
  br label %10, !llvm.loop !6

29:                                               ; preds = %10
  store ptr null, ptr %4, align 8
  br label %30

30:                                               ; preds = %29, %23
  %31 = load ptr, ptr %4, align 8
  ret ptr %31
}