; Function Attrs: mustprogress nounwind uwtable
define hidden noundef ptr @_ZN24TypedMethodOptionMatcher5matchERK12methodHandle18CompileCommandEnum(ptr noundef nonnull align 8 dereferenceable(56) %0, ptr noundef nonnull align 8 dereferenceable(16) %1, i32 noundef %2) local_unnamed_addr #2 align 2 {
  br label %4

4:                                                ; preds = %3, %10
  %.09 = phi ptr [ %0, %3 ], [ %12, %10 ]
  %5 = getelementptr inbounds i8, ptr %.09, i64 40
  %6 = load i32, ptr %5, align 8
  %7 = icmp eq i32 %6, %2
  br i1 %7, label %8, label %10

8:                                                ; preds = %4
  %9 = tail call noundef zeroext i1 @_ZNK13MethodMatcher7matchesERK12methodHandle(ptr noundef nonnull align 8 dereferenceable(32) %.09, ptr noundef nonnull align 8 dereferenceable(16) %1) #19
  br i1 %9, label %13, label %10

10:                                               ; preds = %8, %4
  %11 = getelementptr inbounds i8, ptr %.09, i64 32
  %12 = load ptr, ptr %11, align 8
  %.not = icmp eq ptr %12, null
  br i1 %.not, label %13, label %4, !llvm.loop !6

13:                                               ; preds = %10, %8
  %.0.lcssa = phi ptr [ null, %10 ], [ %.09, %8 ]
  ret ptr %.0.lcssa
}